; Function Attrs: mustprogress uwtable
define hidden void @_ZN10sls_engine6mk_incEjRK3mpzRS0_(ptr noundef nonnull align 8 dereferenceable(1512) %this, i32 noundef %bv_sz, ptr noundef nonnull align 8 dereferenceable(16) %old_value, ptr noundef nonnull align 8 dereferenceable(16) %incremented) local_unnamed_addr #3 align 2 {
entry:
  %shift = alloca i32, align 4
  %m_mpz_manager = getelementptr inbounds i8, ptr %this, i64 72
  %m_one = getelementptr inbounds i8, ptr %this, i64 720
  tail call void @_ZN11mpz_managerILb0EE3addERK3mpzS3_RS1_(ptr noundef nonnull align 8 dereferenceable(600) %m_mpz_manager, ptr noundef nonnull align 8 dereferenceable(16) %old_value, ptr noundef nonnull align 8 dereferenceable(16) %m_one, ptr noundef nonnull align 8 dereferenceable(16) %incremented)
  %call = call noundef zeroext i1 @_ZN11mpz_managerILb0EE15is_power_of_twoERK3mpzRj(ptr noundef nonnull align 8 dereferenceable(600) %m_mpz_manager, ptr noundef nonnull align 8 dereferenceable(16) %incremented, ptr noundef nonnull align 4 dereferenceable(4) %shift)
  %0 = load i32, ptr %shift, align 4
  %cmp = icmp eq i32 %0, %bv_sz
  %or.cond = select i1 %call, i1 %cmp, i1 false
  br i1 %or.cond, label %if.then, label %if.end

if.then:                                          ; preds = %entry
  %m_zero = getelementptr inbounds i8, ptr %this, i64 704
  %m_kind.i.i = getelementptr inbounds i8, ptr %this, i64 708
  %bf.load.i.i = load i8, ptr %m_kind.i.i, align 4
  %bf.clear.i.i = and i8 %bf.load.i.i, 1
  %cmp.i.i = icmp eq i8 %bf.clear.i.i, 0
  br i1 %cmp.i.i, label %if.then.i, label %if.else.i

if.then.i:                                        ; preds = %if.then
  %1 = load i32, ptr %m_zero, align 8
  store i32 %1, ptr %incremented, align 8
  %m_kind.i = getelementptr inbounds i8, ptr %incremented, i64 4
  %bf.load.i = load i8, ptr %m_kind.i, align 4
  %bf.clear.i = and i8 %bf.load.i, -2
  store i8 %bf.clear.i, ptr %m_kind.i, align 4
  br label %if.end

if.else.i:                                        ; preds = %if.then
  call void @_ZN11mpz_managerILb0EE7big_setER3mpzRKS1_(ptr noundef nonnull align 8 dereferenceable(600) %m_mpz_manager, ptr noundef nonnull align 8 dereferenceable(16) %incremented, ptr noundef nonnull align 8 dereferenceable(16) %m_zero)
  br label %if.end

if.end:                                           ; preds = %if.else.i, %if.then.i, %entry
  ret void
}